; Function Attrs: null_pointer_is_valid sspstrong uwtable
define internal i32 @srvsvc_dissect_NetPathCanonicalize_request(ptr noundef %0, i32 noundef %1, ptr noundef %2, ptr noundef %3, ptr noundef initializes((72, 80)) %4, ptr noundef %5) #0 {
  %7 = alloca ptr, align 8
  %8 = alloca ptr, align 8
  %9 = getelementptr inbounds nuw i8, ptr %4, i64 72
  store ptr @.str.1242, ptr %9, align 8
  %10 = load i32, ptr @hf_srvsvc_srvsvc_NetPathCanonicalize_server_unc, align 4
  %11 = tail call i32 @dissect_ndr_toplevel_pointer(ptr noundef %0, i32 noundef %1, ptr noundef %2, ptr noundef %3, ptr noundef %4, ptr noundef %5, ptr noundef nonnull @srvsvc_dissect_element_NetPathCanonicalize_server_unc_, i32 noundef 2, ptr noundef nonnull @.str.1266, i32 noundef %10)
  %12 = tail call i32 @dissect_deferred_pointers(ptr noundef %2, ptr noundef %0, i32 noundef %11, ptr noundef %4, ptr noundef %5)
  call void @llvm.lifetime.start.p0(i64 8, ptr nonnull %8) #4
  %13 = load i32, ptr @hf_srvsvc_srvsvc_NetPathCanonicalize_path, align 4
  %14 = call i32 @dissect_ndr_cvstring(ptr noundef %0, i32 noundef %12, ptr noundef %2, ptr noundef %3, ptr noundef %4, ptr noundef %5, i32 noundef 2, i32 noundef %13, i1 noundef zeroext false, ptr noundef nonnull %8)
  %15 = load ptr, ptr %8, align 8
  call void (ptr, ptr, ...) @proto_item_append_text(ptr noundef %3, ptr noundef nonnull @.str.1102, ptr noundef %15)
  call void @llvm.lifetime.end.p0(i64 8, ptr nonnull %8) #4
  %16 = call i32 @dissect_deferred_pointers(ptr noundef %2, ptr noundef %0, i32 noundef %14, ptr noundef %4, ptr noundef %5)
  %17 = load i32, ptr @hf_srvsvc_srvsvc_NetPathCanonicalize_maxbuf, align 4
  %18 = call i32 @PIDL_dissect_uint32(ptr noundef %0, i32 noundef %16, ptr noundef %2, ptr noundef %3, ptr noundef %4, ptr noundef %5, i32 noundef %17, i32 noundef 0)
  %19 = call i32 @dissect_deferred_pointers(ptr noundef %2, ptr noundef %0, i32 noundef %18, ptr noundef %4, ptr noundef %5)
  call void @llvm.lifetime.start.p0(i64 8, ptr nonnull %7) #4
  %20 = load i32, ptr @hf_srvsvc_srvsvc_NetPathCanonicalize_prefix, align 4
  %21 = call i32 @dissect_ndr_cvstring(ptr noundef %0, i32 noundef %19, ptr noundef %2, ptr noundef %3, ptr noundef %4, ptr noundef %5, i32 noundef 2, i32 noundef %20, i1 noundef zeroext false, ptr noundef nonnull %7)
  %22 = load ptr, ptr %7, align 8
  call void (ptr, ptr, ...) @proto_item_append_text(ptr noundef %3, ptr noundef nonnull @.str.1102, ptr noundef %22)
  call void @llvm.lifetime.end.p0(i64 8, ptr nonnull %7) #4
  %23 = call i32 @dissect_deferred_pointers(ptr noundef %2, ptr noundef %0, i32 noundef %21, ptr noundef %4, ptr noundef %5)
  %24 = load i32, ptr @hf_srvsvc_srvsvc_NetPathCanonicalize_pathtype, align 4
  %25 = call i32 @dissect_ndr_toplevel_pointer(ptr noundef %0, i32 noundef %23, ptr noundef %2, ptr noundef %3, ptr noundef %4, ptr noundef %5, ptr noundef nonnull @srvsvc_dissect_element_NetPathCanonicalize_pathtype_, i32 noundef 1, ptr noundef nonnull @.str.1371, i32 noundef %24)
  %26 = call i32 @dissect_deferred_pointers(ptr noundef %2, ptr noundef %0, i32 noundef %25, ptr noundef %4, ptr noundef %5)
  %27 = load i32, ptr @hf_srvsvc_srvsvc_NetPathCanonicalize_pathflags, align 4
  %28 = call i32 @PIDL_dissect_uint32(ptr noundef %0, i32 noundef %26, ptr noundef %2, ptr noundef %3, ptr noundef %4, ptr noundef %5, i32 noundef %27, i32 noundef 0)
  %29 = call i32 @dissect_deferred_pointers(ptr noundef %2, ptr noundef %0, i32 noundef %28, ptr noundef %4, ptr noundef %5)
  ret i32 %29
}